target datalayout = "e-m:e-p270:32:32-p271:32:32-p272:64:64-i64:64-i128:128-f80:128-n8:16:32:64-S128"
target triple = "x86_64-pc-linux-gnu"

%"class.clang::ento::SVal" = type <{ ptr, i8, [7 x i8] }>
%"class.(anonymous namespace)::BindingKey" = type { %"class.llvm::PointerIntPair.1155", i64 }
%"class.llvm::PointerIntPair.1155" = type { %"struct.llvm::detail::PunnedPointer.1156" }
%"struct.llvm::detail::PunnedPointer.1156" = type { [8 x i8] }
%"struct.std::pair.1177" = type { %"class.(anonymous namespace)::BindingKey", %"class.clang::ento::SVal" }
%"class.llvm::ImutAVLTree" = type { ptr, ptr, ptr, ptr, ptr, i32, %"struct.std::pair.1177", i32, i32 }

; Function Attrs: mustprogress nounwind uwtable
define internal noundef ptr @_ZNK4llvm11ImutAVLTreeINS_16ImutKeyValueInfoIN12_GLOBAL__N_110BindingKeyEN5clang4ento4SValEEEE8getRightEv(ptr noundef nonnull align 8 dereferenceable(88) %0) #0 align 2 {
  %2 = alloca ptr, align 8
  store ptr %0, ptr %2, align 8
  %3 = load ptr, ptr %2, align 8
  %4 = getelementptr inbounds nuw %"class.llvm::ImutAVLTree", ptr %3, i32 0, i32 2
  %5 = load ptr, ptr %4, align 8
  ret ptr %5
}

; Function Attrs: mustprogress nounwind uwtable
define internal noundef ptr @_ZNK4llvm11ImutAVLTreeINS_16ImutKeyValueInfoIN12_GLOBAL__N_110BindingKeyEN5clang4ento4SValEEEE7getLeftEv(ptr noundef nonnull align 8 dereferenceable(88) %0) #0 align 2 {
  %2 = alloca ptr, align 8
  store ptr %0, ptr %2, align 8
  %3 = load ptr, ptr %2, align 8
  %4 = getelementptr inbounds nuw %"class.llvm::ImutAVLTree", ptr %3, i32 0, i32 1
  %5 = load ptr, ptr %4, align 8
  ret ptr %5
}

; Function Attrs: mustprogress nounwind uwtable
define internal noundef nonnull align 8 dereferenceable(32) ptr @_ZNK4llvm14ImutAVLFactoryINS_16ImutKeyValueInfoIN12_GLOBAL__N_110BindingKeyEN5clang4ento4SValEEEE8getValueEPNS_11ImutAVLTreeIS7_EE(ptr noundef nonnull align 8 dereferenceable(80) %0, ptr noundef %1) #0 align 2 {
  %3 = alloca ptr, align 8
  %4 = alloca ptr, align 8
  store ptr %0, ptr %3, align 8
  store ptr %1, ptr %4, align 8
  %5 = load ptr, ptr %4, align 8
  %6 = getelementptr inbounds nuw %"class.llvm::ImutAVLTree", ptr %5, i32 0, i32 6
  ret ptr %6
}

; Function Attrs: mustprogress nounwind uwtable
define internal noundef ptr @_ZNK4llvm14ImutAVLFactoryINS_16ImutKeyValueInfoIN12_GLOBAL__N_110BindingKeyEN5clang4ento4SValEEEE8getRightEPNS_11ImutAVLTreeIS7_EE(ptr noundef nonnull align 8 dereferenceable(80) %0, ptr noundef %1) #0 align 2 {
  %3 = alloca ptr, align 8
  %4 = alloca ptr, align 8
  store ptr %0, ptr %3, align 8
  store ptr %1, ptr %4, align 8
  %5 = load ptr, ptr %4, align 8
  %6 = call noundef ptr @_ZNK4llvm11ImutAVLTreeINS_16ImutKeyValueInfoIN12_GLOBAL__N_110BindingKeyEN5clang4ento4SValEEEE8getRightEv(ptr noundef nonnull align 8 dereferenceable(88) %5)
  ret ptr %6
}

; Function Attrs: mustprogress nounwind uwtable
define internal noundef zeroext i1 @_ZNK4llvm14ImutAVLFactoryINS_16ImutKeyValueInfoIN12_GLOBAL__N_110BindingKeyEN5clang4ento4SValEEEE7isEmptyEPNS_11ImutAVLTreeIS7_EE(ptr noundef nonnull align 8 dereferenceable(80) %0, ptr noundef %1) #0 align 2 {
  %3 = alloca ptr, align 8
  %4 = alloca ptr, align 8
  store ptr %0, ptr %3, align 8
  store ptr %1, ptr %4, align 8
  %5 = load ptr, ptr %4, align 8
  %6 = icmp ne ptr %5, null
  %7 = xor i1 %6, true
  ret i1 %7
}

; Function Attrs: mustprogress nounwind uwtable
define internal noundef ptr @_ZNK4llvm14ImutAVLFactoryINS_16ImutKeyValueInfoIN12_GLOBAL__N_110BindingKeyEN5clang4ento4SValEEEE7getLeftEPNS_11ImutAVLTreeIS7_EE(ptr noundef nonnull align 8 dereferenceable(80) %0, ptr noundef %1) #0 align 2 {
  %3 = alloca ptr, align 8
  %4 = alloca ptr, align 8
  store ptr %0, ptr %3, align 8
  store ptr %1, ptr %4, align 8
  %5 = load ptr, ptr %4, align 8
  %6 = call noundef ptr @_ZNK4llvm11ImutAVLTreeINS_16ImutKeyValueInfoIN12_GLOBAL__N_110BindingKeyEN5clang4ento4SValEEEE7getLeftEv(ptr noundef nonnull align 8 dereferenceable(88) %5)
  ret ptr %6
}

; Function Attrs: mustprogress nounwind uwtable
define internal noundef ptr @_ZN4llvm14ImutAVLFactoryINS_16ImutKeyValueInfoIN12_GLOBAL__N_110BindingKeyEN5clang4ento4SValEEEE16removeMinBindingEPNS_11ImutAVLTreeIS7_EERSB_(ptr noundef nonnull align 8 dereferenceable(80) %0, ptr noundef %1, ptr noundef nonnull align 8 dereferenceable(8) %2) #0 align 2 {
  %4 = alloca ptr, align 8
  %5 = alloca ptr, align 8
  %6 = alloca ptr, align 8
  %7 = alloca ptr, align 8
  store ptr %0, ptr %5, align 8
  store ptr %1, ptr %6, align 8
  store ptr %2, ptr %7, align 8
  %8 = load ptr, ptr %5, align 8
  %9 = load ptr, ptr %6, align 8
  %10 = call noundef ptr @_ZNK4llvm14ImutAVLFactoryINS_16ImutKeyValueInfoIN12_GLOBAL__N_110BindingKeyEN5clang4ento4SValEEEE7getLeftEPNS_11ImutAVLTreeIS7_EE(ptr noundef nonnull align 8 dereferenceable(80) %8, ptr noundef %9)
  %11 = call noundef zeroext i1 @_ZNK4llvm14ImutAVLFactoryINS_16ImutKeyValueInfoIN12_GLOBAL__N_110BindingKeyEN5clang4ento4SValEEEE7isEmptyEPNS_11ImutAVLTreeIS7_EE(ptr noundef nonnull align 8 dereferenceable(80) %8, ptr noundef %10)
  br i1 %11, label %12, label %17

12:                                               ; preds = %3
  %13 = load ptr, ptr %6, align 8
  %14 = load ptr, ptr %7, align 8
  store ptr %13, ptr %14, align 8
  %15 = load ptr, ptr %6, align 8
  %16 = call noundef ptr @_ZNK4llvm14ImutAVLFactoryINS_16ImutKeyValueInfoIN12_GLOBAL__N_110BindingKeyEN5clang4ento4SValEEEE8getRightEPNS_11ImutAVLTreeIS7_EE(ptr noundef nonnull align 8 dereferenceable(80) %8, ptr noundef %15)
  store ptr %16, ptr %4, align 8
  br label %27

17:                                               ; preds = %3
  %18 = load ptr, ptr %6, align 8
  %19 = call noundef ptr @_ZNK4llvm14ImutAVLFactoryINS_16ImutKeyValueInfoIN12_GLOBAL__N_110BindingKeyEN5clang4ento4SValEEEE7getLeftEPNS_11ImutAVLTreeIS7_EE(ptr noundef nonnull align 8 dereferenceable(80) %8, ptr noundef %18)
  %20 = load ptr, ptr %7, align 8
  %21 = call noundef ptr @_ZN4llvm14ImutAVLFactoryINS_16ImutKeyValueInfoIN12_GLOBAL__N_110BindingKeyEN5clang4ento4SValEEEE16removeMinBindingEPNS_11ImutAVLTreeIS7_EERSB_(ptr noundef nonnull align 8 dereferenceable(80) %8, ptr noundef %19, ptr noundef nonnull align 8 dereferenceable(8) %20)
  %22 = load ptr, ptr %6, align 8
  %23 = call noundef nonnull align 8 dereferenceable(32) ptr @_ZNK4llvm14ImutAVLFactoryINS_16ImutKeyValueInfoIN12_GLOBAL__N_110BindingKeyEN5clang4ento4SValEEEE8getValueEPNS_11ImutAVLTreeIS7_EE(ptr noundef nonnull align 8 dereferenceable(80) %8, ptr noundef %22)
  %24 = load ptr, ptr %6, align 8
  %25 = call noundef ptr @_ZNK4llvm14ImutAVLFactoryINS_16ImutKeyValueInfoIN12_GLOBAL__N_110BindingKeyEN5clang4ento4SValEEEE8getRightEPNS_11ImutAVLTreeIS7_EE(ptr noundef nonnull align 8 dereferenceable(80) %8, ptr noundef %24)
  %26 = call noundef ptr @_ZN4llvm14ImutAVLFactoryINS_16ImutKeyValueInfoIN12_GLOBAL__N_110BindingKeyEN5clang4ento4SValEEEE11balanceTreeEPNS_11ImutAVLTreeIS7_EERKSt4pairIS3_S6_ESB_(ptr noundef nonnull align 8 dereferenceable(80) %8, ptr noundef %21, ptr noundef nonnull align 8 dereferenceable(32) %23, ptr noundef %25)
  store ptr %26, ptr %4, align 8
  br label %27

27:                                               ; preds = %17, %12
  %28 = load ptr, ptr %4, align 8
  ret ptr %28
}