; Function Attrs: mustprogress nounwind uwtable
define internal fastcc noundef ptr @_ZN4llvm14ImutAVLFactoryINS_16ImutKeyValueInfoIN12_GLOBAL__N_110BindingKeyEN5clang4ento4SValEEEE16removeMinBindingEPNS_11ImutAVLTreeIS7_EERSB_(ptr noundef nonnull align 8 dereferenceable(80) %0, ptr noundef %1, ptr noundef nonnull writeonly align 8 captures(none) dereferenceable(8) %2) unnamed_addr #2 align 2 {
  %4 = getelementptr i8, ptr %1, i64 8
  %.val10 = load ptr, ptr %4, align 8
  %.not.i = icmp eq ptr %.val10, null
  br i1 %.not.i, label %common.ret, label %6

common.ret:                                       ; preds = %3
  store ptr %1, ptr %2, align 8
  %5 = getelementptr i8, ptr %1, i64 16
  %.val12 = load ptr, ptr %5, align 8
  br label %common.ret13

common.ret13:                                     ; preds = %6, %common.ret
  %common.ret13.op = phi ptr [ %.val12, %common.ret ], [ %10, %6 ]
  ret ptr %common.ret13.op

6:                                                ; preds = %3
  %7 = tail call fastcc noundef ptr @_ZN4llvm14ImutAVLFactoryINS_16ImutKeyValueInfoIN12_GLOBAL__N_110BindingKeyEN5clang4ento4SValEEEE16removeMinBindingEPNS_11ImutAVLTreeIS7_EERSB_(ptr noundef nonnull align 8 dereferenceable(80) %0, ptr noundef nonnull %.val10, ptr noundef nonnull align 8 dereferenceable(8) %2)
  %8 = getelementptr inbounds nuw i8, ptr %1, i64 48
  %9 = getelementptr i8, ptr %1, i64 16
  %.val11 = load ptr, ptr %9, align 8
  %10 = tail call fastcc noundef ptr @_ZN4llvm14ImutAVLFactoryINS_16ImutKeyValueInfoIN12_GLOBAL__N_110BindingKeyEN5clang4ento4SValEEEE11balanceTreeEPNS_11ImutAVLTreeIS7_EERKSt4pairIS3_S6_ESB_(ptr noundef nonnull align 8 dereferenceable(80) %0, ptr noundef %7, ptr noundef nonnull align 8 dereferenceable(32) %8, ptr noundef %.val11)
  br label %common.ret13
}